(dp1
S'Ben Johnson'
p2
S'212-222-2222'
p3
sS'Jason'
p4
S'666-666-5555'
p5
sS'Phil'
p6
S'959-421-3213'
p7
sS'Benjamin Franklin'
p8
S'333-333-3333'
p9
sS'Frank Lee Mydear'
p10
S'444-444-4444'
p11
sS'Ernst'
p12
S'555-555-5555'
p13
sS'Alison'
p14
S'111-111-1111'
p15
s.